	.text
	.file	"exception.cpp"
	.file	1 "/usr/bin/../lib/gcc/x86_64-linux-gnu/9/../../../../include/x86_64-linux-gnu/c++/9/bits" "atomic_word.h"
	.file	2 "/usr/bin/../lib/gcc/x86_64-linux-gnu/9/../../../../include/c++/9/bits" "ios_base.h"
	.file	3 "/usr/bin/../lib/gcc/x86_64-linux-gnu/9/../../../../include/c++/9" "iostream"
	.file	4 "/usr/include/x86_64-linux-gnu/bits/types" "__mbstate_t.h"
	.file	5 "/usr/include/x86_64-linux-gnu/bits/types" "mbstate_t.h"
	.file	6 "/usr/bin/../lib/gcc/x86_64-linux-gnu/9/../../../../include/c++/9" "cwchar"
	.file	7 "/usr/include/x86_64-linux-gnu/bits/types" "wint_t.h"
	.file	8 "/usr/include" "wchar.h"
	.file	9 "/usr/include/x86_64-linux-gnu/bits/types" "__FILE.h"
	.file	10 "/usr/lib/llvm-10/lib/clang/10.0.0/include" "stddef.h"
	.file	11 "/usr/bin/../lib/gcc/x86_64-linux-gnu/9/../../../../include/c++/9/bits" "exception_ptr.h"
	.file	12 "/usr/bin/../lib/gcc/x86_64-linux-gnu/9/../../../../include/x86_64-linux-gnu/c++/9/bits" "c++config.h"
	.file	13 "/usr/bin/../lib/gcc/x86_64-linux-gnu/9/../../../../include/c++/9/debug" "debug.h"
	.file	14 "/usr/include/x86_64-linux-gnu/bits" "types.h"
	.file	15 "/usr/include/x86_64-linux-gnu/bits" "stdint-intn.h"
	.file	16 "/usr/bin/../lib/gcc/x86_64-linux-gnu/9/../../../../include/c++/9" "cstdint"
	.file	17 "/usr/include" "stdint.h"
	.file	18 "/usr/include/x86_64-linux-gnu/bits" "stdint-uintn.h"
	.file	19 "/usr/bin/../lib/gcc/x86_64-linux-gnu/9/../../../../include/c++/9" "clocale"
	.file	20 "/usr/include" "locale.h"
	.file	21 "/usr/include" "ctype.h"
	.file	22 "/usr/bin/../lib/gcc/x86_64-linux-gnu/9/../../../../include/c++/9" "cctype"
	.file	23 "/usr/bin/../lib/gcc/x86_64-linux-gnu/9/../../../../include/c++/9/ext" "new_allocator.h"
	.file	24 "/usr/include" "stdlib.h"
	.file	25 "/usr/bin/../lib/gcc/x86_64-linux-gnu/9/../../../../include/c++/9/bits" "std_abs.h"
	.file	26 "/usr/bin/../lib/gcc/x86_64-linux-gnu/9/../../../../include/c++/9" "cstdlib"
	.file	27 "/usr/include/x86_64-linux-gnu/bits/types" "FILE.h"
	.file	28 "/usr/bin/../lib/gcc/x86_64-linux-gnu/9/../../../../include/c++/9" "cstdio"
	.file	29 "/usr/include/x86_64-linux-gnu/bits/types" "__fpos_t.h"
	.file	30 "/usr/include" "stdio.h"
	.file	31 "/usr/include" "wctype.h"
	.file	32 "/usr/bin/../lib/gcc/x86_64-linux-gnu/9/../../../../include/c++/9" "cwctype"
	.file	33 "/usr/include/x86_64-linux-gnu/bits" "wctype-wchar.h"
	.section	.text.startup,"ax",@progbits
	.p2align	4, 0x90         # -- Begin function __cxx_global_var_init
	.type	__cxx_global_var_init,@function
__cxx_global_var_init:                  # @__cxx_global_var_init
.Lfunc_begin0:
	.loc	3 74 0                  # /usr/bin/../lib/gcc/x86_64-linux-gnu/9/../../../../include/c++/9/iostream:74:0
	.cfi_startproc
# %bb.0:
	pushq	%rbp
	.cfi_def_cfa_offset 16
	.cfi_offset %rbp, -16
	movq	%rsp, %rbp
	.cfi_def_cfa_register %rbp
.Ltmp0:
	.loc	3 74 25 prologue_end    # /usr/bin/../lib/gcc/x86_64-linux-gnu/9/../../../../include/c++/9/iostream:74:25
	movabsq	$_ZStL8__ioinit, %rdi
	callq	_ZNSt8ios_base4InitC1Ev
	movabsq	$_ZNSt8ios_base4InitD1Ev, %rax
	movq	%rax, %rdi
	movabsq	$_ZStL8__ioinit, %rsi
	movabsq	$__dso_handle, %rdx
	callq	__cxa_atexit
	popq	%rbp
	.cfi_def_cfa %rsp, 8
	retq
.Ltmp1:
.Lfunc_end0:
	.size	__cxx_global_var_init, .Lfunc_end0-__cxx_global_var_init
	.cfi_endproc
                                        # -- End function
	.text
	.globl	_Z19throw_the_exceptionb # -- Begin function _Z19throw_the_exceptionb
	.p2align	4, 0x90
	.type	_Z19throw_the_exceptionb,@function
_Z19throw_the_exceptionb:               # @_Z19throw_the_exceptionb
.Lfunc_begin1:
	.file	34 "/home/vanessa/Desktop/Code/build-abi-tests/exceptions/0-can-i-make-assembly/clang" "exception.cpp"
	.loc	34 11 0                 # exception.cpp:11:0
	.cfi_startproc
	.cfi_personality 3, __gxx_personality_v0
	.cfi_lsda 3, .Lexception0
# %bb.0:
	pushq	%rbp
	.cfi_def_cfa_offset 16
	.cfi_offset %rbp, -16
	movq	%rsp, %rbp
	.cfi_def_cfa_register %rbp
	subq	$32, %rsp
                                        # kill: def $dil killed $dil killed $edi
	andb	$1, %dil
	movb	%dil, -1(%rbp)
.Ltmp5:
	.loc	34 12 9 prologue_end    # exception.cpp:12:9
	testb	$1, -1(%rbp)
	je	.LBB1_4
# %bb.1:
	.loc	34 0 9 is_stmt 0        # exception.cpp:0:9
	movl	$4, %edi
.Ltmp6:
	.loc	34 13 9 is_stmt 1       # exception.cpp:13:9
	callq	__cxa_allocate_exception
	movq	%rax, %rcx
.Ltmp2:
	.loc	34 13 15 is_stmt 0      # exception.cpp:13:15
	movq	%rax, %rdi
	movq	%rcx, -32(%rbp)         # 8-byte Spill
	callq	_ZN17DinosaurExceptionC2Ev
.Ltmp3:
	jmp	.LBB1_2
.LBB1_2:
	.loc	34 0 15                 # exception.cpp:0:15
	movabsq	$_ZTI17DinosaurException, %rax
	movabsq	$_ZN17DinosaurExceptionD2Ev, %rcx
	movq	-32(%rbp), %rdi         # 8-byte Reload
	.loc	34 13 9                 # exception.cpp:13:9
	movq	%rax, %rsi
	movq	%rcx, %rdx
	callq	__cxa_throw
.LBB1_3:
.Ltmp4:
                                        # kill: def $edx killed $edx killed $rdx
	.loc	34 15 1 is_stmt 1       # exception.cpp:15:1
	movq	%rax, -16(%rbp)
	movl	%edx, -20(%rbp)
	movq	-32(%rbp), %rdi         # 8-byte Reload
	.loc	34 13 9                 # exception.cpp:13:9
	callq	__cxa_free_exception
	jmp	.LBB1_5
.Ltmp7:
.LBB1_4:
	.loc	34 15 1                 # exception.cpp:15:1
	addq	$32, %rsp
	popq	%rbp
	.cfi_def_cfa %rsp, 8
	retq
.LBB1_5:
	.cfi_def_cfa %rbp, 16
.Ltmp8:
	.loc	34 13 9                 # exception.cpp:13:9
	movq	-16(%rbp), %rdi
	callq	_Unwind_Resume
.Ltmp9:
.Lfunc_end1:
	.size	_Z19throw_the_exceptionb, .Lfunc_end1-_Z19throw_the_exceptionb
	.cfi_endproc
	.section	.gcc_except_table,"a",@progbits
	.p2align	2
GCC_except_table1:
.Lexception0:
	.byte	255                     # @LPStart Encoding = omit
	.byte	255                     # @TType Encoding = omit
	.byte	1                       # Call site Encoding = uleb128
	.uleb128 .Lcst_end0-.Lcst_begin0
.Lcst_begin0:
	.uleb128 .Lfunc_begin1-.Lfunc_begin1 # >> Call Site 1 <<
	.uleb128 .Ltmp2-.Lfunc_begin1   #   Call between .Lfunc_begin1 and .Ltmp2
	.byte	0                       #     has no landing pad
	.byte	0                       #   On action: cleanup
	.uleb128 .Ltmp2-.Lfunc_begin1   # >> Call Site 2 <<
	.uleb128 .Ltmp3-.Ltmp2          #   Call between .Ltmp2 and .Ltmp3
	.uleb128 .Ltmp4-.Lfunc_begin1   #     jumps to .Ltmp4
	.byte	0                       #   On action: cleanup
	.uleb128 .Ltmp3-.Lfunc_begin1   # >> Call Site 3 <<
	.uleb128 .Lfunc_end1-.Ltmp3     #   Call between .Ltmp3 and .Lfunc_end1
	.byte	0                       #     has no landing pad
	.byte	0                       #   On action: cleanup
.Lcst_end0:
	.p2align	2
                                        # -- End function
	.section	.text._ZN17DinosaurExceptionC2Ev,"axG",@progbits,_ZN17DinosaurExceptionC2Ev,comdat
	.weak	_ZN17DinosaurExceptionC2Ev # -- Begin function _ZN17DinosaurExceptionC2Ev
	.p2align	4, 0x90
	.type	_ZN17DinosaurExceptionC2Ev,@function
_ZN17DinosaurExceptionC2Ev:             # @_ZN17DinosaurExceptionC2Ev
.Lfunc_begin2:
	.loc	34 7 0                  # exception.cpp:7:0
	.cfi_startproc
# %bb.0:
	pushq	%rbp
	.cfi_def_cfa_offset 16
	.cfi_offset %rbp, -16
	movq	%rsp, %rbp
	.cfi_def_cfa_register %rbp
	movq	%rdi, -8(%rbp)
.Ltmp10:
	.loc	34 7 26 prologue_end    # exception.cpp:7:26
	popq	%rbp
	.cfi_def_cfa %rsp, 8
	retq
.Ltmp11:
.Lfunc_end2:
	.size	_ZN17DinosaurExceptionC2Ev, .Lfunc_end2-_ZN17DinosaurExceptionC2Ev
	.cfi_endproc
                                        # -- End function
	.section	.text._ZN17DinosaurExceptionD2Ev,"axG",@progbits,_ZN17DinosaurExceptionD2Ev,comdat
	.weak	_ZN17DinosaurExceptionD2Ev # -- Begin function _ZN17DinosaurExceptionD2Ev
	.p2align	4, 0x90
	.type	_ZN17DinosaurExceptionD2Ev,@function
_ZN17DinosaurExceptionD2Ev:             # @_ZN17DinosaurExceptionD2Ev
.Lfunc_begin3:
	.loc	34 8 0                  # exception.cpp:8:0
	.cfi_startproc
# %bb.0:
	pushq	%rbp
	.cfi_def_cfa_offset 16
	.cfi_offset %rbp, -16
	movq	%rsp, %rbp
	.cfi_def_cfa_register %rbp
	movq	%rdi, -8(%rbp)
.Ltmp12:
	.loc	34 8 27 prologue_end    # exception.cpp:8:27
	popq	%rbp
	.cfi_def_cfa %rsp, 8
	retq
.Ltmp13:
.Lfunc_end3:
	.size	_ZN17DinosaurExceptionD2Ev, .Lfunc_end3-_ZN17DinosaurExceptionD2Ev
	.cfi_endproc
                                        # -- End function
	.text
	.globl	_Z14hello_dinosaurv     # -- Begin function _Z14hello_dinosaurv
	.p2align	4, 0x90
	.type	_Z14hello_dinosaurv,@function
_Z14hello_dinosaurv:                    # @_Z14hello_dinosaurv
.Lfunc_begin4:
	.loc	34 17 0                 # exception.cpp:17:0
	.cfi_startproc
# %bb.0:
	pushq	%rbp
	.cfi_def_cfa_offset 16
	.cfi_offset %rbp, -16
	movq	%rsp, %rbp
	.cfi_def_cfa_register %rbp
.Ltmp14:
	.loc	34 18 15 prologue_end   # exception.cpp:18:15
	movabsq	$_ZSt4cout, %rdi
	movabsq	$.L.str, %rsi
	callq	_ZStlsISt11char_traitsIcEERSt13basic_ostreamIcT_ES5_PKc
	.loc	34 18 36 is_stmt 0      # exception.cpp:18:36
	movq	%rax, %rdi
	movabsq	$_ZSt4endlIcSt11char_traitsIcEERSt13basic_ostreamIT_T0_ES6_, %rsi
	callq	_ZNSolsEPFRSoS_E
	.loc	34 19 1 is_stmt 1       # exception.cpp:19:1
	popq	%rbp
	.cfi_def_cfa %rsp, 8
	retq
.Ltmp15:
.Lfunc_end4:
	.size	_Z14hello_dinosaurv, .Lfunc_end4-_Z14hello_dinosaurv
	.cfi_endproc
                                        # -- End function
	.globl	_Z3logj                 # -- Begin function _Z3logj
	.p2align	4, 0x90
	.type	_Z3logj,@function
_Z3logj:                                # @_Z3logj
.Lfunc_begin5:
	.loc	34 21 0                 # exception.cpp:21:0
	.cfi_startproc
# %bb.0:
	pushq	%rbp
	.cfi_def_cfa_offset 16
	.cfi_offset %rbp, -16
	movq	%rsp, %rbp
	.cfi_def_cfa_register %rbp
	subq	$16, %rsp
	movl	%edi, -4(%rbp)
.Ltmp16:
	.loc	34 22 18 prologue_end   # exception.cpp:22:18
	movl	-4(%rbp), %esi
	.loc	34 22 15 is_stmt 0      # exception.cpp:22:15
	movabsq	$_ZSt4cout, %rdi
	callq	_ZNSolsEj
	.loc	34 22 24                # exception.cpp:22:24
	movq	%rax, %rdi
	movabsq	$_ZSt4endlIcSt11char_traitsIcEERSt13basic_ostreamIT_T0_ES6_, %rsi
	callq	_ZNSolsEPFRSoS_E
	.loc	34 23 1 is_stmt 1       # exception.cpp:23:1
	addq	$16, %rsp
	popq	%rbp
	.cfi_def_cfa %rsp, 8
	retq
.Ltmp17:
.Lfunc_end5:
	.size	_Z3logj, .Lfunc_end5-_Z3logj
	.cfi_endproc
                                        # -- End function
	.globl	_Z19catch_the_exceptionv # -- Begin function _Z19catch_the_exceptionv
	.p2align	4, 0x90
	.type	_Z19catch_the_exceptionv,@function
_Z19catch_the_exceptionv:               # @_Z19catch_the_exceptionv
.Lfunc_begin6:
	.loc	34 25 0                 # exception.cpp:25:0
	.cfi_startproc
	.cfi_personality 3, __gxx_personality_v0
	.cfi_lsda 3, .Lexception1
# %bb.0:
	pushq	%rbp
	.cfi_def_cfa_offset 16
	.cfi_offset %rbp, -16
	movq	%rsp, %rbp
	.cfi_def_cfa_register %rbp
	subq	$32, %rsp
	xorl	%edi, %edi
.Ltmp33:
	.loc	34 26 5 prologue_end    # exception.cpp:26:5
	callq	_Z3logj
.Ltmp18:
	movl	$1, %edi
.Ltmp34:
	.loc	34 28 9                 # exception.cpp:28:9
	callq	_Z3logj
.Ltmp19:
	jmp	.LBB6_1
.LBB6_1:
.Ltmp20:
	.loc	34 29 9                 # exception.cpp:29:9
	callq	_Z14hello_dinosaurv
.Ltmp21:
	jmp	.LBB6_2
.LBB6_2:
.Ltmp22:
	.loc	34 0 9 is_stmt 0        # exception.cpp:0:9
	movl	$1, %edi
	.loc	34 30 9 is_stmt 1       # exception.cpp:30:9
	callq	_Z19throw_the_exceptionb
.Ltmp23:
	jmp	.LBB6_3
.LBB6_3:
.Ltmp24:
	.loc	34 0 9 is_stmt 0        # exception.cpp:0:9
	movl	$2, %edi
	.loc	34 31 9 is_stmt 1       # exception.cpp:31:9
	callq	_Z3logj
.Ltmp25:
	jmp	.LBB6_4
.LBB6_4:
	.loc	34 32 5                 # exception.cpp:32:5
	jmp	.LBB6_9
.LBB6_5:
.Ltmp26:
                                        # kill: def $edx killed $edx killed $rdx
	.loc	34 38 1                 # exception.cpp:38:1
	movq	%rax, -8(%rbp)
	movl	%edx, -12(%rbp)
# %bb.6:
	.loc	34 32 5                 # exception.cpp:32:5
	movl	-12(%rbp), %eax
	movl	$1, %ecx
	cmpl	%ecx, %eax
	jne	.LBB6_12
# %bb.7:
	movq	-8(%rbp), %rdi
	callq	__cxa_begin_catch
	movq	%rax, -24(%rbp)
.Ltmp27:
	movl	$3, %edi
.Ltmp35:
	.loc	34 33 9                 # exception.cpp:33:9
	callq	_Z3logj
.Ltmp28:
	jmp	.LBB6_8
.LBB6_8:
	.loc	34 34 5                 # exception.cpp:34:5
	callq	__cxa_end_catch
.Ltmp36:
.LBB6_9:
	.loc	34 37 5                 # exception.cpp:37:5
	movl	$4, %edi
	callq	_Z3logj
	.loc	34 38 1                 # exception.cpp:38:1
	addq	$32, %rsp
	popq	%rbp
	.cfi_def_cfa %rsp, 8
	retq
.LBB6_10:
	.cfi_def_cfa %rbp, 16
.Ltmp29:
                                        # kill: def $edx killed $edx killed $rdx
.Ltmp37:
	.loc	34 38 1 is_stmt 0       # exception.cpp:38:1
	movq	%rax, -8(%rbp)
	movl	%edx, -12(%rbp)
.Ltmp30:
	.loc	34 34 5 is_stmt 1       # exception.cpp:34:5
	callq	__cxa_end_catch
.Ltmp31:
	jmp	.LBB6_11
.LBB6_11:
	jmp	.LBB6_12
.Ltmp38:
.LBB6_12:
	.loc	34 32 5                 # exception.cpp:32:5
	movq	-8(%rbp), %rdi
	callq	_Unwind_Resume
.Ltmp39:
.LBB6_13:
.Ltmp32:
                                        # kill: def $edx killed $edx killed $rdx
	.loc	34 34 5                 # exception.cpp:34:5
	movq	%rax, %rdi
	movl	%edx, -28(%rbp)         # 4-byte Spill
	callq	__clang_call_terminate
.Ltmp40:
.Lfunc_end6:
	.size	_Z19catch_the_exceptionv, .Lfunc_end6-_Z19catch_the_exceptionv
	.cfi_endproc
	.section	.gcc_except_table,"a",@progbits
	.p2align	2
GCC_except_table6:
.Lexception1:
	.byte	255                     # @LPStart Encoding = omit
	.byte	3                       # @TType Encoding = udata4
	.uleb128 .Lttbase0-.Lttbaseref0
.Lttbaseref0:
	.byte	1                       # Call site Encoding = uleb128
	.uleb128 .Lcst_end1-.Lcst_begin1
.Lcst_begin1:
	.uleb128 .Lfunc_begin6-.Lfunc_begin6 # >> Call Site 1 <<
	.uleb128 .Ltmp18-.Lfunc_begin6  #   Call between .Lfunc_begin6 and .Ltmp18
	.byte	0                       #     has no landing pad
	.byte	0                       #   On action: cleanup
	.uleb128 .Ltmp18-.Lfunc_begin6  # >> Call Site 2 <<
	.uleb128 .Ltmp25-.Ltmp18        #   Call between .Ltmp18 and .Ltmp25
	.uleb128 .Ltmp26-.Lfunc_begin6  #     jumps to .Ltmp26
	.byte	1                       #   On action: 1
	.uleb128 .Ltmp25-.Lfunc_begin6  # >> Call Site 3 <<
	.uleb128 .Ltmp27-.Ltmp25        #   Call between .Ltmp25 and .Ltmp27
	.byte	0                       #     has no landing pad
	.byte	0                       #   On action: cleanup
	.uleb128 .Ltmp27-.Lfunc_begin6  # >> Call Site 4 <<
	.uleb128 .Ltmp28-.Ltmp27        #   Call between .Ltmp27 and .Ltmp28
	.uleb128 .Ltmp29-.Lfunc_begin6  #     jumps to .Ltmp29
	.byte	0                       #   On action: cleanup
	.uleb128 .Ltmp28-.Lfunc_begin6  # >> Call Site 5 <<
	.uleb128 .Ltmp30-.Ltmp28        #   Call between .Ltmp28 and .Ltmp30
	.byte	0                       #     has no landing pad
	.byte	0                       #   On action: cleanup
	.uleb128 .Ltmp30-.Lfunc_begin6  # >> Call Site 6 <<
	.uleb128 .Ltmp31-.Ltmp30        #   Call between .Ltmp30 and .Ltmp31
	.uleb128 .Ltmp32-.Lfunc_begin6  #     jumps to .Ltmp32
	.byte	3                       #   On action: 2
	.uleb128 .Ltmp31-.Lfunc_begin6  # >> Call Site 7 <<
	.uleb128 .Lfunc_end6-.Ltmp31    #   Call between .Ltmp31 and .Lfunc_end6
	.byte	0                       #     has no landing pad
	.byte	0                       #   On action: cleanup
.Lcst_end1:
	.byte	1                       # >> Action Record 1 <<
                                        #   Catch TypeInfo 1
	.byte	0                       #   No further actions
	.byte	2                       # >> Action Record 2 <<
                                        #   Catch TypeInfo 2
	.byte	0                       #   No further actions
	.p2align	2
                                        # >> Catch TypeInfos <<
	.long	0                       # TypeInfo 2
	.long	_ZTI17DinosaurException # TypeInfo 1
.Lttbase0:
	.p2align	2
                                        # -- End function
	.section	.text.__clang_call_terminate,"axG",@progbits,__clang_call_terminate,comdat
	.hidden	__clang_call_terminate  # -- Begin function __clang_call_terminate
	.weak	__clang_call_terminate
	.p2align	4, 0x90
	.type	__clang_call_terminate,@function
__clang_call_terminate:                 # @__clang_call_terminate
.Lfunc_begin7:
	.cfi_startproc
# %bb.0:
	pushq	%rax
	.cfi_def_cfa_offset 16
	callq	__cxa_begin_catch
	movq	%rax, (%rsp)            # 8-byte Spill
	callq	_ZSt9terminatev
.Lfunc_end7:
	.size	__clang_call_terminate, .Lfunc_end7-__clang_call_terminate
	.cfi_endproc
                                        # -- End function
	.text
	.globl	main                    # -- Begin function main
	.p2align	4, 0x90
	.type	main,@function
main:                                   # @main
.Lfunc_begin8:
	.loc	34 40 0                 # exception.cpp:40:0
	.cfi_startproc
# %bb.0:
	pushq	%rbp
	.cfi_def_cfa_offset 16
	.cfi_offset %rbp, -16
	movq	%rsp, %rbp
	.cfi_def_cfa_register %rbp
	subq	$16, %rsp
	movl	$0, -4(%rbp)
.Ltmp41:
	.loc	34 41 5 prologue_end    # exception.cpp:41:5
	callq	_Z19catch_the_exceptionv
	xorl	%eax, %eax
	.loc	34 42 5                 # exception.cpp:42:5
	addq	$16, %rsp
	popq	%rbp
	.cfi_def_cfa %rsp, 8
	retq
.Ltmp42:
.Lfunc_end8:
	.size	main, .Lfunc_end8-main
	.cfi_endproc
                                        # -- End function
	.section	.text.startup,"ax",@progbits
	.p2align	4, 0x90         # -- Begin function _GLOBAL__sub_I_exception.cpp
	.type	_GLOBAL__sub_I_exception.cpp,@function
_GLOBAL__sub_I_exception.cpp:           # @_GLOBAL__sub_I_exception.cpp
.Lfunc_begin9:
	.loc	34 0 0                  # exception.cpp:0:0
	.cfi_startproc
# %bb.0:
	pushq	%rbp
	.cfi_def_cfa_offset 16
	.cfi_offset %rbp, -16
	movq	%rsp, %rbp
	.cfi_def_cfa_register %rbp
.Ltmp43:
	callq	__cxx_global_var_init
	popq	%rbp
	.cfi_def_cfa %rsp, 8
	retq
.Ltmp44:
.Lfunc_end9:
	.size	_GLOBAL__sub_I_exception.cpp, .Lfunc_end9-_GLOBAL__sub_I_exception.cpp
	.cfi_endproc
                                        # -- End function
	.type	_ZStL8__ioinit,@object  # @_ZStL8__ioinit
	.local	_ZStL8__ioinit
	.comm	_ZStL8__ioinit,1,1
	.hidden	__dso_handle
	.type	_ZTS17DinosaurException,@object # @_ZTS17DinosaurException
	.section	.rodata._ZTS17DinosaurException,"aG",@progbits,_ZTS17DinosaurException,comdat
	.weak	_ZTS17DinosaurException
_ZTS17DinosaurException:
	.asciz	"17DinosaurException"
	.size	_ZTS17DinosaurException, 20

	.type	_ZTI17DinosaurException,@object # @_ZTI17DinosaurException
	.section	.rodata._ZTI17DinosaurException,"aG",@progbits,_ZTI17DinosaurException,comdat
	.weak	_ZTI17DinosaurException
	.p2align	3
_ZTI17DinosaurException:
	.quad	_ZTVN10__cxxabiv117__class_type_infoE+16
	.quad	_ZTS17DinosaurException
	.size	_ZTI17DinosaurException, 16

	.type	.L.str,@object          # @.str
	.section	.rodata.str1.1,"aMS",@progbits,1
.L.str:
	.asciz	"Hello Dinosaur!"
	.size	.L.str, 16

	.section	.init_array,"aw",@init_array
	.p2align	3
	.quad	_GLOBAL__sub_I_exception.cpp
	.section	".note.GNU-stack","",@progbits
	.addrsig
	.addrsig_sym __cxx_global_var_init
	.addrsig_sym __cxa_atexit
	.addrsig_sym _Z19throw_the_exceptionb
	.addrsig_sym __cxa_allocate_exception
	.addrsig_sym __gxx_personality_v0
	.addrsig_sym __cxa_free_exception
	.addrsig_sym __cxa_throw
	.addrsig_sym _Z14hello_dinosaurv
	.addrsig_sym _ZStlsISt11char_traitsIcEERSt13basic_ostreamIcT_ES5_PKc
	.addrsig_sym _ZNSolsEPFRSoS_E
	.addrsig_sym _ZSt4endlIcSt11char_traitsIcEERSt13basic_ostreamIT_T0_ES6_
	.addrsig_sym _Z3logj
	.addrsig_sym _ZNSolsEj
	.addrsig_sym _Z19catch_the_exceptionv
	.addrsig_sym __cxa_begin_catch
	.addrsig_sym __cxa_end_catch
	.addrsig_sym __clang_call_terminate
	.addrsig_sym _ZSt9terminatev
	.addrsig_sym _GLOBAL__sub_I_exception.cpp
	.addrsig_sym _Unwind_Resume
	.addrsig_sym _ZStL8__ioinit
	.addrsig_sym __dso_handle
	.addrsig_sym _ZTVN10__cxxabiv117__class_type_infoE
	.addrsig_sym _ZTS17DinosaurException
	.addrsig_sym _ZTI17DinosaurException
	.addrsig_sym _ZSt4cout