	.text
	.file	"libdinosaur.cpp"
	.file	1 "/usr/bin/../lib/gcc/x86_64-linux-gnu/9/../../../../include/x86_64-linux-gnu/c++/9/bits" "atomic_word.h"
	.file	2 "/usr/bin/../lib/gcc/x86_64-linux-gnu/9/../../../../include/c++/9/bits" "ios_base.h"
	.file	3 "/usr/bin/../lib/gcc/x86_64-linux-gnu/9/../../../../include/c++/9" "iostream"
	.file	4 "/usr/include/x86_64-linux-gnu/bits/types" "__mbstate_t.h"
	.file	5 "/usr/include/x86_64-linux-gnu/bits/types" "mbstate_t.h"
	.file	6 "/usr/bin/../lib/gcc/x86_64-linux-gnu/9/../../../../include/c++/9" "cwchar"
	.file	7 "/usr/include/x86_64-linux-gnu/bits/types" "wint_t.h"
	.file	8 "/usr/include" "wchar.h"
	.file	9 "/usr/include/x86_64-linux-gnu/bits/types" "__FILE.h"
	.file	10 "/usr/lib/llvm-10/lib/clang/10.0.0/include" "stddef.h"
	.file	11 "/usr/bin/../lib/gcc/x86_64-linux-gnu/9/../../../../include/c++/9/bits" "exception_ptr.h"
	.file	12 "/usr/bin/../lib/gcc/x86_64-linux-gnu/9/../../../../include/x86_64-linux-gnu/c++/9/bits" "c++config.h"
	.file	13 "/usr/bin/../lib/gcc/x86_64-linux-gnu/9/../../../../include/c++/9/debug" "debug.h"
	.file	14 "/usr/include/x86_64-linux-gnu/bits" "types.h"
	.file	15 "/usr/include/x86_64-linux-gnu/bits" "stdint-intn.h"
	.file	16 "/usr/bin/../lib/gcc/x86_64-linux-gnu/9/../../../../include/c++/9" "cstdint"
	.file	17 "/usr/include" "stdint.h"
	.file	18 "/usr/include/x86_64-linux-gnu/bits" "stdint-uintn.h"
	.file	19 "/usr/bin/../lib/gcc/x86_64-linux-gnu/9/../../../../include/c++/9" "clocale"
	.file	20 "/usr/include" "locale.h"
	.file	21 "/usr/include" "ctype.h"
	.file	22 "/usr/bin/../lib/gcc/x86_64-linux-gnu/9/../../../../include/c++/9" "cctype"
	.file	23 "/usr/bin/../lib/gcc/x86_64-linux-gnu/9/../../../../include/c++/9/ext" "new_allocator.h"
	.file	24 "/usr/include" "stdlib.h"
	.file	25 "/usr/bin/../lib/gcc/x86_64-linux-gnu/9/../../../../include/c++/9/bits" "std_abs.h"
	.file	26 "/usr/bin/../lib/gcc/x86_64-linux-gnu/9/../../../../include/c++/9" "cstdlib"
	.file	27 "/usr/include/x86_64-linux-gnu/bits/types" "FILE.h"
	.file	28 "/usr/bin/../lib/gcc/x86_64-linux-gnu/9/../../../../include/c++/9" "cstdio"
	.file	29 "/usr/include/x86_64-linux-gnu/bits/types" "__fpos_t.h"
	.file	30 "/usr/include" "stdio.h"
	.file	31 "/usr/include" "wctype.h"
	.file	32 "/usr/bin/../lib/gcc/x86_64-linux-gnu/9/../../../../include/c++/9" "cwctype"
	.file	33 "/usr/include/x86_64-linux-gnu/bits" "wctype-wchar.h"
	.section	.text.startup,"ax",@progbits
	.p2align	4, 0x90         # -- Begin function __cxx_global_var_init
	.type	__cxx_global_var_init,@function
__cxx_global_var_init:                  # @__cxx_global_var_init
.Lfunc_begin0:
	.loc	3 74 0                  # /usr/bin/../lib/gcc/x86_64-linux-gnu/9/../../../../include/c++/9/iostream:74:0
	.cfi_startproc
# %bb.0:
	pushq	%rbp
	.cfi_def_cfa_offset 16
	.cfi_offset %rbp, -16
	movq	%rsp, %rbp
	.cfi_def_cfa_register %rbp
.Ltmp0:
	.loc	3 74 25 prologue_end    # /usr/bin/../lib/gcc/x86_64-linux-gnu/9/../../../../include/c++/9/iostream:74:25
	movabsq	$_ZStL8__ioinit, %rdi
	callq	_ZNSt8ios_base4InitC1Ev
	movabsq	$_ZNSt8ios_base4InitD1Ev, %rax
	movq	%rax, %rdi
	movabsq	$_ZStL8__ioinit, %rsi
	movabsq	$__dso_handle, %rdx
	callq	__cxa_atexit
	popq	%rbp
	.cfi_def_cfa %rsp, 8
	retq
.Ltmp1:
.Lfunc_end0:
	.size	__cxx_global_var_init, .Lfunc_end0-__cxx_global_var_init
	.cfi_endproc
                                        # -- End function
	.p2align	4, 0x90         # -- Begin function _GLOBAL__sub_I_libdinosaur.cpp
	.type	_GLOBAL__sub_I_libdinosaur.cpp,@function
_GLOBAL__sub_I_libdinosaur.cpp:         # @_GLOBAL__sub_I_libdinosaur.cpp
.Lfunc_begin1:
	.file	34 "/home/vanessa/Desktop/Code/build-abi-tests/exceptions/0-can-i-make-assembly/clang" "libdinosaur.cpp"
	.loc	34 0 0                  # libdinosaur.cpp:0:0
	.cfi_startproc
# %bb.0:
	pushq	%rbp
	.cfi_def_cfa_offset 16
	.cfi_offset %rbp, -16
	movq	%rsp, %rbp
	.cfi_def_cfa_register %rbp
.Ltmp2:
	callq	__cxx_global_var_init
	popq	%rbp
	.cfi_def_cfa %rsp, 8
	retq
.Ltmp3:
.Lfunc_end1:
	.size	_GLOBAL__sub_I_libdinosaur.cpp, .Lfunc_end1-_GLOBAL__sub_I_libdinosaur.cpp
	.cfi_endproc
                                        # -- End function
	.type	_ZStL8__ioinit,@object  # @_ZStL8__ioinit
	.local	_ZStL8__ioinit
	.comm	_ZStL8__ioinit,1,1
	.hidden	__dso_handle
	.section	.init_array,"aw",@init_array
	.p2align	3
	.quad	_GLOBAL__sub_I_libdinosaur.cpp
	.section	".note.GNU-stack","",@progbits
	.addrsig
	.addrsig_sym __cxx_global_var_init
	.addrsig_sym __cxa_atexit
	.addrsig_sym _GLOBAL__sub_I_libdinosaur.cpp
	.addrsig_sym _ZStL8__ioinit
	.addrsig_sym __dso_handle